target datalayout = "e-m:e-p270:32:32-p271:32:32-p272:64:64-i64:64-i128:128-f80:128-n8:16:32:64-S128"
target triple = "x86_64-pc-linux-gnu"

@.str.17 = private unnamed_addr constant [13 x i8] c"FcGetVersion\00", align 1
@openFontConfig.homeEnvStr = internal global ptr @.str.85, align 8
@.str.86 = private unnamed_addr constant [19 x i8] c"USE_J2D_FONTCONFIG\00", align 1
@.str.87 = private unnamed_addr constant [3 x i8] c"no\00", align 1
@.str.88 = private unnamed_addr constant [19 x i8] c"libfontconfig.so.1\00", align 1
@.str.89 = private unnamed_addr constant [17 x i8] c"libfontconfig.so\00", align 1
@.str.90 = private unnamed_addr constant [5 x i8] c"HOME\00", align 1

; Function Attrs: nounwind uwtable
define internal void @closeFontConfig(ptr noundef %0, i8 noundef zeroext %1) #0 {
  %3 = alloca ptr, align 8
  %4 = alloca i8, align 1
  store ptr %0, ptr %3, align 8
  store i8 %1, ptr %4, align 1
  %5 = load ptr, ptr %3, align 8
  %6 = call i32 @dlclose(ptr noundef %5) #6
  ret void
}

; Function Attrs: nounwind uwtable
define internal ptr @openFontConfig() #0 {
  %1 = alloca ptr, align 8
  %2 = alloca ptr, align 8
  %3 = alloca ptr, align 8
  %4 = alloca ptr, align 8
  store ptr null, ptr %3, align 8
  %5 = call ptr @getenv(ptr noundef @.str.86) #6
  store ptr %5, ptr %4, align 8
  %6 = load ptr, ptr %4, align 8
  %7 = icmp ne ptr %6, null
  br i1 %7, label %8, label %13

8:                                                ; preds = %0
  %9 = load ptr, ptr %4, align 8
  %10 = call i32 @strcmp(ptr noundef %9, ptr noundef @.str.87) #8
  %11 = icmp ne i32 %10, 0
  br i1 %11, label %13, label %12

12:                                               ; preds = %8
  store ptr null, ptr %1, align 8
  br label %32

13:                                               ; preds = %8, %0
  %14 = call ptr @dlopen(ptr noundef @.str.88, i32 noundef 1) #6
  store ptr %14, ptr %3, align 8
  %15 = load ptr, ptr %3, align 8
  %16 = icmp eq ptr %15, null
  br i1 %16, label %17, label %23

17:                                               ; preds = %13
  %18 = call ptr @dlopen(ptr noundef @.str.89, i32 noundef 1) #6
  store ptr %18, ptr %3, align 8
  %19 = load ptr, ptr %3, align 8
  %20 = icmp eq ptr %19, null
  br i1 %20, label %21, label %22

21:                                               ; preds = %17
  store ptr null, ptr %1, align 8
  br label %32

22:                                               ; preds = %17
  br label %23

23:                                               ; preds = %22, %13
  %24 = call ptr @getenv(ptr noundef @.str.90) #6
  store ptr %24, ptr %2, align 8
  %25 = load ptr, ptr %2, align 8
  %26 = icmp eq ptr %25, null
  br i1 %26, label %27, label %30

27:                                               ; preds = %23
  %28 = load ptr, ptr @openFontConfig.homeEnvStr, align 8
  %29 = call i32 @putenv(ptr noundef %28) #6
  br label %30

30:                                               ; preds = %27, %23
  %31 = load ptr, ptr %3, align 8
  store ptr %31, ptr %1, align 8
  br label %32

32:                                               ; preds = %30, %21, %12
  %33 = load ptr, ptr %1, align 8
  ret ptr %33
}

; Function Attrs: nounwind uwtable
define i32 @Java_sun_font_FontConfigManager_getFontConfigVersion(ptr noundef %0, ptr noundef %1) #0 {
  %3 = alloca i32, align 4
  %4 = alloca ptr, align 8
  %5 = alloca ptr, align 8
  %6 = alloca ptr, align 8
  %7 = alloca ptr, align 8
  %8 = alloca i32, align 4
  store ptr %0, ptr %4, align 8
  store ptr %1, ptr %5, align 8
  store i32 0, ptr %8, align 4
  %9 = call ptr @openFontConfig()
  store ptr %9, ptr %6, align 8
  %10 = icmp eq ptr %9, null
  br i1 %10, label %11, label %12

11:                                               ; preds = %2
  store i32 0, ptr %3, align 4
  br label %24

12:                                               ; preds = %2
  %13 = load ptr, ptr %6, align 8
  %14 = call ptr @dlsym(ptr noundef %13, ptr noundef @.str.17) #6
  store ptr %14, ptr %7, align 8
  %15 = load ptr, ptr %7, align 8
  %16 = icmp eq ptr %15, null
  br i1 %16, label %17, label %19

17:                                               ; preds = %12
  %18 = load ptr, ptr %6, align 8
  call void @closeFontConfig(ptr noundef %18, i8 noundef zeroext 0)
  store i32 0, ptr %3, align 4
  br label %24

19:                                               ; preds = %12
  %20 = load ptr, ptr %7, align 8
  %21 = call i32 (...) %20()
  store i32 %21, ptr %8, align 4
  %22 = load ptr, ptr %6, align 8
  call void @closeFontConfig(ptr noundef %22, i8 noundef zeroext 0)
  %23 = load i32, ptr %8, align 4
  store i32 %23, ptr %3, align 4
  br label %24

24:                                               ; preds = %19, %17, %11
  %25 = load i32, ptr %3, align 4
  ret i32 %25
}