; Function Attrs: nounwind uwtable
define i32 @Java_sun_font_FontConfigManager_getFontConfigVersion(ptr nocapture noundef readnone %0, ptr nocapture noundef readnone %1) local_unnamed_addr #0 {
  %3 = tail call ptr @getenv(ptr noundef nonnull @.str.86) #13
  %.not.i = icmp eq ptr %3, null
  br i1 %.not.i, label %.tail.thread.i, label %sub_0.i

sub_0.i:                                          ; preds = %2
  %4 = load i8, ptr %3, align 1
  %.not12.i = icmp eq i8 %4, 110
  br i1 %.not12.i, label %sub_1.i, label %.tail.thread.i

sub_1.i:                                          ; preds = %sub_0.i
  %5 = getelementptr inbounds i8, ptr %3, i64 1
  %6 = load i8, ptr %5, align 1
  %.not13.i = icmp eq i8 %6, 111
  br i1 %.not13.i, label %.tail.i, label %.tail.thread.i

.tail.i:                                          ; preds = %sub_1.i
  %7 = getelementptr inbounds i8, ptr %3, i64 2
  %8 = load i8, ptr %7, align 1
  %9 = icmp eq i8 %8, 0
  br i1 %9, label %openFontConfig.exit.thread, label %.tail.thread.i

.tail.thread.i:                                   ; preds = %.tail.i, %sub_1.i, %sub_0.i, %2
  %10 = tail call ptr @dlopen(ptr noundef nonnull @.str.88, i32 noundef 1) #13
  %11 = icmp eq ptr %10, null
  br i1 %11, label %12, label %15

12:                                               ; preds = %.tail.thread.i
  %13 = tail call ptr @dlopen(ptr noundef nonnull @.str.89, i32 noundef 1) #13
  %14 = icmp eq ptr %13, null
  br i1 %14, label %openFontConfig.exit.thread, label %15

15:                                               ; preds = %12, %.tail.thread.i
  %.07.i = phi ptr [ %13, %12 ], [ %10, %.tail.thread.i ]
  %16 = tail call ptr @getenv(ptr noundef nonnull @.str.90) #13
  %17 = icmp eq ptr %16, null
  br i1 %17, label %18, label %openFontConfig.exit

18:                                               ; preds = %15
  %19 = tail call i32 @putenv(ptr noundef nonnull @.str.85) #13
  br label %openFontConfig.exit

openFontConfig.exit:                              ; preds = %18, %15
  %20 = tail call ptr @dlsym(ptr noundef nonnull %.07.i, ptr noundef nonnull @.str.17) #13
  %21 = icmp eq ptr %20, null
  br i1 %21, label %openFontConfig.exit.thread.sink.split, label %22

22:                                               ; preds = %openFontConfig.exit
  %23 = tail call i32 (...) %20() #13
  br label %openFontConfig.exit.thread.sink.split

openFontConfig.exit.thread.sink.split:            ; preds = %openFontConfig.exit, %22
  %.0.ph = phi i32 [ %23, %22 ], [ 0, %openFontConfig.exit ]
  %24 = tail call i32 @dlclose(ptr noundef nonnull %.07.i) #13
  br label %openFontConfig.exit.thread

openFontConfig.exit.thread:                       ; preds = %openFontConfig.exit.thread.sink.split, %12, %.tail.i
  %.0 = phi i32 [ 0, %.tail.i ], [ 0, %12 ], [ %.0.ph, %openFontConfig.exit.thread.sink.split ]
  ret i32 %.0
}